target datalayout = "e-m:e-p270:32:32-p271:32:32-p272:64:64-i64:64-i128:128-f80:128-n8:16:32:64-S128"
target triple = "x86_64-unknown-linux-gnu"

%"class.std::__shared_count" = type { ptr }
%"class.cvc5::Sort" = type { ptr, %"class.std::shared_ptr.92" }
%"class.std::shared_ptr.92" = type { %"class.std::__shared_ptr.93" }
%"class.std::__shared_ptr.93" = type { ptr, %"class.std::__shared_count" }

; Function Attrs: mustprogress uwtable
define void @_ZN4cvc56parser11ParserState16mkUnresolvedTypeERKNSt7__cxx1112basic_stringIcSt11char_traitsIcESaIcEEEm(ptr noalias sret(%"class.cvc5::Sort") align 8 %agg.result, ptr noundef nonnull align 8 dereferenceable(168) %this, ptr noundef nonnull align 8 dereferenceable(32) %name, i64 noundef %arity) #4 align 2 {
entry:
  %result.ptr = alloca ptr, align 8
  %this.addr = alloca ptr, align 8
  %name.addr = alloca ptr, align 8
  %arity.addr = alloca i64, align 8
  store ptr %agg.result, ptr %result.ptr, align 8
  store ptr %this, ptr %this.addr, align 8
  store ptr %name, ptr %name.addr, align 8
  store i64 %arity, ptr %arity.addr, align 8
  %this1 = load ptr, ptr %this.addr, align 8
  %0 = load i64, ptr %arity.addr, align 8
  %cmp = icmp eq i64 %0, 0
  br i1 %cmp, label %if.then, label %if.end

if.then:                                          ; preds = %entry
  %1 = load ptr, ptr %name.addr, align 8
  call void @_ZN4cvc56parser11ParserState16mkUnresolvedTypeERKNSt7__cxx1112basic_stringIcSt11char_traitsIcESaIcEEE(ptr sret(%"class.cvc5::Sort") align 8 %agg.result, ptr noundef nonnull align 8 dereferenceable(168) %this1, ptr noundef nonnull align 8 dereferenceable(32) %1)
  br label %return

if.end:                                           ; preds = %entry
  %2 = load ptr, ptr %name.addr, align 8
  %3 = load i64, ptr %arity.addr, align 8
  call void @_ZN4cvc56parser11ParserState27mkUnresolvedTypeConstructorERKNSt7__cxx1112basic_stringIcSt11char_traitsIcESaIcEEEm(ptr sret(%"class.cvc5::Sort") align 8 %agg.result, ptr noundef nonnull align 8 dereferenceable(168) %this1, ptr noundef nonnull align 8 dereferenceable(32) %2, i64 noundef %3)
  br label %return

return:                                           ; preds = %if.end, %if.then
  ret void
}