; Function Attrs: mustprogress uwtable
define void @_ZN4cvc56parser11ParserState16mkUnresolvedTypeERKNSt7__cxx1112basic_stringIcSt11char_traitsIcESaIcEEEm(ptr noalias sret(%"class.cvc5::Sort") align 8 %agg.result, ptr nocapture noundef nonnull readonly align 8 dereferenceable(168) %this, ptr noundef nonnull align 8 dereferenceable(32) %name, i64 noundef %arity) local_unnamed_addr #3 align 2 {
entry:
  %cmp = icmp eq i64 %arity, 0
  br i1 %cmp, label %if.then, label %if.end

if.then:                                          ; preds = %entry
  tail call void @_ZN4cvc56parser11ParserState16mkUnresolvedTypeERKNSt7__cxx1112basic_stringIcSt11char_traitsIcESaIcEEE(ptr sret(%"class.cvc5::Sort") align 8 %agg.result, ptr noundef nonnull align 8 dereferenceable(168) %this, ptr noundef nonnull align 8 dereferenceable(32) %name)
  br label %return

if.end:                                           ; preds = %entry
  tail call void @_ZN4cvc56parser11ParserState27mkUnresolvedTypeConstructorERKNSt7__cxx1112basic_stringIcSt11char_traitsIcESaIcEEEm(ptr sret(%"class.cvc5::Sort") align 8 %agg.result, ptr noundef nonnull align 8 dereferenceable(168) %this, ptr noundef nonnull align 8 dereferenceable(32) %name, i64 noundef %arity)
  br label %return

return:                                           ; preds = %if.end, %if.then
  ret void
}